; ModuleID = '20/304.c'
source_filename = "20/304.c"
target datalayout = "e-m:e-p270:32:32-p271:32:32-p272:64:64-i64:64-f80:128-n8:16:32:64-S128"
target triple = "x86_64-pc-linux-gnu"

@.str = private unnamed_addr constant [6 x i8] c"%s %s\00", align 1
@.str.1 = private unnamed_addr constant [3 x i8] c"%c\00", align 1
@.str.2 = private unnamed_addr constant [2 x i8] c"\0A\00", align 1

; Function Attrs: noinline nounwind uwtable
define dso_local void @main() #0 {
  %1 = alloca [10 x i8], align 1
  %2 = alloca [3 x i8], align 1
  %3 = alloca [15 x i8], align 1
  %4 = alloca i8, align 1
  %5 = alloca i32, align 4
  %6 = alloca i32, align 4
  %7 = alloca i32, align 4
  %8 = alloca i32, align 4
  br label %9

9:                                                ; preds = %130, %0
  %10 = getelementptr inbounds [10 x i8], [10 x i8]* %1, i64 0, i64 0
  %11 = getelementptr inbounds [3 x i8], [3 x i8]* %2, i64 0, i64 0
  %12 = call i32 (i8*, ...) @__isoc99_scanf(i8* getelementptr inbounds ([6 x i8], [6 x i8]* @.str, i64 0, i64 0), i8* %10, i8* %11)
  %13 = icmp ne i32 %12, -1
  br i1 %13, label %14, label %132

14:                                               ; preds = %9
  %15 = getelementptr inbounds [10 x i8], [10 x i8]* %1, i64 0, i64 0
  %16 = call i64 @strlen(i8* %15) #3
  %17 = trunc i64 %16 to i32
  store i32 %17, i32* %7, align 4
  %18 = getelementptr inbounds [10 x i8], [10 x i8]* %1, i64 0, i64 0
  %19 = load i8, i8* %18, align 1
  store i8 %19, i8* %4, align 1
  store i32 0, i32* %5, align 4
  br label %20

20:                                               ; preds = %39, %14
  %21 = load i32, i32* %5, align 4
  %22 = load i32, i32* %7, align 4
  %23 = icmp slt i32 %21, %22
  br i1 %23, label %24, label %42

24:                                               ; preds = %20
  %25 = load i8, i8* %4, align 1
  %26 = sext i8 %25 to i32
  %27 = load i32, i32* %5, align 4
  %28 = sext i32 %27 to i64
  %29 = getelementptr inbounds [10 x i8], [10 x i8]* %1, i64 0, i64 %28
  %30 = load i8, i8* %29, align 1
  %31 = sext i8 %30 to i32
  %32 = icmp slt i32 %26, %31
  br i1 %32, label %33, label %38

33:                                               ; preds = %24
  %34 = load i32, i32* %5, align 4
  %35 = sext i32 %34 to i64
  %36 = getelementptr inbounds [10 x i8], [10 x i8]* %1, i64 0, i64 %35
  %37 = load i8, i8* %36, align 1
  store i8 %37, i8* %4, align 1
  br label %38

38:                                               ; preds = %33, %24
  br label %39

39:                                               ; preds = %38
  %40 = load i32, i32* %5, align 4
  %41 = add nsw i32 %40, 1
  store i32 %41, i32* %5, align 4
  br label %20

42:                                               ; preds = %20
  store i32 0, i32* %5, align 4
  br label %43

43:                                               ; preds = %75, %42
  %44 = load i32, i32* %5, align 4
  %45 = load i32, i32* %7, align 4
  %46 = icmp slt i32 %44, %45
  br i1 %46, label %47, label %78

47:                                               ; preds = %43
  %48 = load i32, i32* %5, align 4
  %49 = sext i32 %48 to i64
  %50 = getelementptr inbounds [10 x i8], [10 x i8]* %1, i64 0, i64 %49
  %51 = load i8, i8* %50, align 1
  %52 = sext i8 %51 to i32
  %53 = load i8, i8* %4, align 1
  %54 = sext i8 %53 to i32
  %55 = icmp ne i32 %52, %54
  br i1 %55, label %56, label %64

56:                                               ; preds = %47
  %57 = load i32, i32* %5, align 4
  %58 = sext i32 %57 to i64
  %59 = getelementptr inbounds [10 x i8], [10 x i8]* %1, i64 0, i64 %58
  %60 = load i8, i8* %59, align 1
  %61 = load i32, i32* %5, align 4
  %62 = sext i32 %61 to i64
  %63 = getelementptr inbounds [15 x i8], [15 x i8]* %3, i64 0, i64 %62
  store i8 %60, i8* %63, align 1
  br label %74

64:                                               ; preds = %47
  %65 = load i32, i32* %5, align 4
  %66 = sext i32 %65 to i64
  %67 = getelementptr inbounds [10 x i8], [10 x i8]* %1, i64 0, i64 %66
  %68 = load i8, i8* %67, align 1
  %69 = load i32, i32* %5, align 4
  %70 = sext i32 %69 to i64
  %71 = getelementptr inbounds [15 x i8], [15 x i8]* %3, i64 0, i64 %70
  store i8 %68, i8* %71, align 1
  %72 = load i32, i32* %5, align 4
  %73 = add nsw i32 %72, 1
  store i32 %73, i32* %5, align 4
  br label %78

74:                                               ; preds = %56
  br label %75

75:                                               ; preds = %74
  %76 = load i32, i32* %5, align 4
  %77 = add nsw i32 %76, 1
  store i32 %77, i32* %5, align 4
  br label %43

78:                                               ; preds = %64, %43
  store i32 0, i32* %6, align 4
  br label %79

79:                                               ; preds = %92, %78
  %80 = load i32, i32* %6, align 4
  %81 = icmp slt i32 %80, 3
  br i1 %81, label %82, label %95

82:                                               ; preds = %79
  %83 = load i32, i32* %6, align 4
  %84 = sext i32 %83 to i64
  %85 = getelementptr inbounds [3 x i8], [3 x i8]* %2, i64 0, i64 %84
  %86 = load i8, i8* %85, align 1
  %87 = load i32, i32* %5, align 4
  %88 = load i32, i32* %6, align 4
  %89 = add nsw i32 %87, %88
  %90 = sext i32 %89 to i64
  %91 = getelementptr inbounds [15 x i8], [15 x i8]* %3, i64 0, i64 %90
  store i8 %86, i8* %91, align 1
  br label %92

92:                                               ; preds = %82
  %93 = load i32, i32* %6, align 4
  %94 = add nsw i32 %93, 1
  store i32 %94, i32* %6, align 4
  br label %79

95:                                               ; preds = %79
  br label %96

96:                                               ; preds = %110, %95
  %97 = load i32, i32* %5, align 4
  %98 = load i32, i32* %7, align 4
  %99 = icmp slt i32 %97, %98
  br i1 %99, label %100, label %113

100:                                              ; preds = %96
  %101 = load i32, i32* %5, align 4
  %102 = sext i32 %101 to i64
  %103 = getelementptr inbounds [10 x i8], [10 x i8]* %1, i64 0, i64 %102
  %104 = load i8, i8* %103, align 1
  %105 = load i32, i32* %5, align 4
  %106 = load i32, i32* %6, align 4
  %107 = add nsw i32 %105, %106
  %108 = sext i32 %107 to i64
  %109 = getelementptr inbounds [15 x i8], [15 x i8]* %3, i64 0, i64 %108
  store i8 %104, i8* %109, align 1
  br label %110

110:                                              ; preds = %100
  %111 = load i32, i32* %5, align 4
  %112 = add nsw i32 %111, 1
  store i32 %112, i32* %5, align 4
  br label %96

113:                                              ; preds = %96
  store i32 0, i32* %8, align 4
  br label %114

114:                                              ; preds = %127, %113
  %115 = load i32, i32* %8, align 4
  %116 = load i32, i32* %5, align 4
  %117 = load i32, i32* %6, align 4
  %118 = add nsw i32 %116, %117
  %119 = icmp slt i32 %115, %118
  br i1 %119, label %120, label %130

120:                                              ; preds = %114
  %121 = load i32, i32* %8, align 4
  %122 = sext i32 %121 to i64
  %123 = getelementptr inbounds [15 x i8], [15 x i8]* %3, i64 0, i64 %122
  %124 = load i8, i8* %123, align 1
  %125 = sext i8 %124 to i32
  %126 = call i32 (i8*, ...) @printf(i8* getelementptr inbounds ([3 x i8], [3 x i8]* @.str.1, i64 0, i64 0), i32 %125)
  br label %127

127:                                              ; preds = %120
  %128 = load i32, i32* %8, align 4
  %129 = add nsw i32 %128, 1
  store i32 %129, i32* %8, align 4
  br label %114

130:                                              ; preds = %114
  %131 = call i32 (i8*, ...) @printf(i8* getelementptr inbounds ([2 x i8], [2 x i8]* @.str.2, i64 0, i64 0))
  br label %9

132:                                              ; preds = %9
  ret void
}

declare dso_local i32 @__isoc99_scanf(i8*, ...) #1

; Function Attrs: nounwind readonly
declare dso_local i64 @strlen(i8*) #2

declare dso_local i32 @printf(i8*, ...) #1


!llvm.module.flags = !{!0}
!llvm.ident = !{!1}

!0 = !{i32 1, !"wchar_size", i32 4}
!1 = !{!"clang version 10.0.0-4ubuntu1 "}
